target datalayout = "e-m:e-p270:32:32-p271:32:32-p272:64:64-i64:64-i128:128-f80:128-n8:16:32:64-S128"
target triple = "x86_64-pc-linux-gnu"

%struct.nstime_t = type { i64, i32 }
%struct._address = type { i32, i32, ptr, ptr }
%struct._conversation_item_t = type { ptr, %struct._address, %struct._address, i32, i32, i32, i32, i64, i64, i64, i64, i64, i64, i64, i64, %struct.nstime_t, %struct.nstime_t, %struct.nstime_t, i8, %struct._conversation_extension_tcp_t }
%struct._conversation_extension_tcp_t = type { i64 }

@.str.58 = private unnamed_addr constant [21 x i8] c"jxta.message.address\00", align 1
@uri_address_type = internal global i32 -1, align 4
@.str.186 = private unnamed_addr constant [17 x i8] c"jxta.message.src\00", align 1
@.str.187 = private unnamed_addr constant [17 x i8] c"jxta.message.dst\00", align 1
@.str.188 = private unnamed_addr constant [8 x i8] c"INVALID\00", align 1

; Function Attrs: nounwind null_pointer_is_valid sspstrong uwtable
define internal ptr @jxta_conv_get_filter_type(ptr noundef %0, i32 noundef %1) #3 {
  %3 = alloca ptr, align 8
  %4 = alloca ptr, align 8
  %5 = alloca i32, align 4
  store ptr %0, ptr %4, align 8
  store i32 %1, ptr %5, align 4
  %6 = load i32, ptr %5, align 4
  %7 = icmp eq i32 %6, 0
  br i1 %7, label %8, label %16

8:                                                ; preds = %2
  %9 = load ptr, ptr %4, align 8
  %10 = getelementptr inbounds nuw %struct._conversation_item_t, ptr %9, i32 0, i32 1
  %11 = getelementptr inbounds nuw %struct._address, ptr %10, i32 0, i32 0
  %12 = load i32, ptr %11, align 8
  %13 = load i32, ptr @uri_address_type, align 4
  %14 = icmp eq i32 %12, %13
  br i1 %14, label %15, label %16

15:                                               ; preds = %8
  store ptr @.str.186, ptr %3, align 8
  br label %39

16:                                               ; preds = %8, %2
  %17 = load i32, ptr %5, align 4
  %18 = icmp eq i32 %17, 1
  br i1 %18, label %19, label %27

19:                                               ; preds = %16
  %20 = load ptr, ptr %4, align 8
  %21 = getelementptr inbounds nuw %struct._conversation_item_t, ptr %20, i32 0, i32 2
  %22 = getelementptr inbounds nuw %struct._address, ptr %21, i32 0, i32 0
  %23 = load i32, ptr %22, align 8
  %24 = load i32, ptr @uri_address_type, align 4
  %25 = icmp eq i32 %23, %24
  br i1 %25, label %26, label %27

26:                                               ; preds = %19
  store ptr @.str.187, ptr %3, align 8
  br label %39

27:                                               ; preds = %19, %16
  %28 = load i32, ptr %5, align 4
  %29 = icmp eq i32 %28, 2
  br i1 %29, label %30, label %38

30:                                               ; preds = %27
  %31 = load ptr, ptr %4, align 8
  %32 = getelementptr inbounds nuw %struct._conversation_item_t, ptr %31, i32 0, i32 1
  %33 = getelementptr inbounds nuw %struct._address, ptr %32, i32 0, i32 0
  %34 = load i32, ptr %33, align 8
  %35 = load i32, ptr @uri_address_type, align 4
  %36 = icmp eq i32 %34, %35
  br i1 %36, label %37, label %38

37:                                               ; preds = %30
  store ptr @.str.58, ptr %3, align 8
  br label %39

38:                                               ; preds = %30, %27
  store ptr @.str.188, ptr %3, align 8
  br label %39

39:                                               ; preds = %38, %37, %26, %15
  %40 = load ptr, ptr %3, align 8
  ret ptr %40
}