; Function Attrs: mustprogress nofree norecurse nosync nounwind null_pointer_is_valid sspstrong willreturn memory(read, inaccessiblemem: none) uwtable
define internal noundef nonnull ptr @jxta_conv_get_filter_type(ptr noundef readonly captures(none) %0, i32 noundef %1) #11 {
  switch i32 %1, label %18 [
    i32 0, label %3
    i32 1, label %8
    i32 2, label %13
  ]

3:                                                ; preds = %2
  %4 = getelementptr inbounds nuw i8, ptr %0, i64 8
  %5 = load i32, ptr %4, align 8
  %6 = load i32, ptr @uri_address_type, align 4
  %7 = icmp eq i32 %5, %6
  br i1 %7, label %19, label %18

8:                                                ; preds = %2
  %9 = getelementptr inbounds nuw i8, ptr %0, i64 32
  %10 = load i32, ptr %9, align 8
  %11 = load i32, ptr @uri_address_type, align 4
  %12 = icmp eq i32 %10, %11
  br i1 %12, label %19, label %18

13:                                               ; preds = %2
  %14 = getelementptr inbounds nuw i8, ptr %0, i64 8
  %15 = load i32, ptr %14, align 8
  %16 = load i32, ptr @uri_address_type, align 4
  %17 = icmp eq i32 %15, %16
  br i1 %17, label %19, label %18

18:                                               ; preds = %8, %3, %2, %13
  br label %19

19:                                               ; preds = %13, %8, %3, %18
  %.0 = phi ptr [ @.str.188, %18 ], [ @.str.186, %3 ], [ @.str.187, %8 ], [ @.str.58, %13 ]
  ret ptr %.0
}